target datalayout = "e-m:e-p270:32:32-p271:32:32-p272:64:64-i64:64-i128:128-f80:128-n8:16:32:64-S128"
target triple = "x86_64-pc-linux-gnu"

%struct.RBasic = type { i64, i64 }
%struct.RFile = type { %struct.RBasic, ptr }
%union.union_sockaddr = type { %struct.sockaddr_storage, [1920 x i8] }
%struct.sockaddr_storage = type { i16, [118 x i8], i64 }

@rb_cSocket = external global i64, align 8

; Function Attrs: inlinehint nounwind sspstrong willreturn memory(none) uwtable
define internal zeroext i1 @RB_IMMEDIATE_P(i64 noundef %0) #7 {
  %2 = alloca i64, align 8
  store i64 %0, ptr %2, align 8, !tbaa !11
  %3 = load i64, ptr %2, align 8, !tbaa !11
  %4 = and i64 %3, 7
  %5 = icmp ne i64 %4, 0
  ret i1 %5
}

; Function Attrs: inlinehint nounwind sspstrong willreturn memory(read) uwtable
define internal i32 @RB_BUILTIN_TYPE(i64 noundef %0) #6 {
  %2 = alloca i64, align 8
  %3 = alloca i64, align 8
  store i64 %0, ptr %2, align 8, !tbaa !11
  call void @llvm.lifetime.start.p0(i64 8, ptr %3) #24
  %4 = load i64, ptr %2, align 8, !tbaa !11
  %5 = inttoptr i64 %4 to ptr
  %6 = getelementptr inbounds nuw %struct.RBasic, ptr %5, i32 0, i32 0
  %7 = load i64, ptr %6, align 8, !tbaa !99
  %8 = and i64 %7, 31
  store i64 %8, ptr %3, align 8, !tbaa !11
  %9 = load i64, ptr %3, align 8, !tbaa !11
  %10 = trunc i64 %9 to i32
  call void @llvm.lifetime.end.p0(i64 8, ptr %3) #24
  ret i32 %10
}

; Function Attrs: inlinehint nounwind sspstrong willreturn memory(none) uwtable
define internal zeroext i1 @RB_SPECIAL_CONST_P(i64 noundef %0) #7 {
  %2 = alloca i64, align 8
  store i64 %0, ptr %2, align 8, !tbaa !11
  %3 = load i64, ptr %2, align 8, !tbaa !11
  %4 = icmp eq i64 %3, 0
  br i1 %4, label %8, label %5

5:                                                ; preds = %1
  %6 = load i64, ptr %2, align 8, !tbaa !11
  %7 = call zeroext i1 @RB_IMMEDIATE_P(i64 noundef %6) #26
  br label %8

8:                                                ; preds = %5, %1
  %9 = phi i1 [ true, %1 ], [ %7, %5 ]
  ret i1 %9
}

; Function Attrs: inlinehint nounwind sspstrong willreturn memory(read) uwtable
define internal zeroext i1 @RB_DYNAMIC_SYM_P(i64 noundef %0) #6 {
  %2 = alloca i1, align 1
  %3 = alloca i64, align 8
  store i64 %0, ptr %3, align 8, !tbaa !11
  %4 = load i64, ptr %3, align 8, !tbaa !11
  %5 = call zeroext i1 @RB_SPECIAL_CONST_P(i64 noundef %4) #26
  br i1 %5, label %6, label %7

6:                                                ; preds = %1
  store i1 false, ptr %2, align 1
  br label %11

7:                                                ; preds = %1
  %8 = load i64, ptr %3, align 8, !tbaa !11
  %9 = call i32 @RB_BUILTIN_TYPE(i64 noundef %8) #25
  %10 = icmp eq i32 %9, 20
  store i1 %10, ptr %2, align 1
  br label %11

11:                                               ; preds = %7, %6
  %12 = load i1, ptr %2, align 1
  ret i1 %12
}

; Function Attrs: inlinehint nounwind sspstrong willreturn memory(none) uwtable
define internal zeroext i1 @RB_STATIC_SYM_P(i64 noundef %0) #7 {
  %2 = alloca i64, align 8
  %3 = alloca i64, align 8
  store i64 %0, ptr %2, align 8, !tbaa !11
  call void @llvm.lifetime.start.p0(i64 8, ptr %3) #24
  store i64 255, ptr %3, align 8, !tbaa !11
  %4 = load i64, ptr %2, align 8, !tbaa !11
  %5 = and i64 %4, 255
  %6 = icmp eq i64 %5, 12
  call void @llvm.lifetime.end.p0(i64 8, ptr %3) #24
  ret i1 %6
}

; Function Attrs: inlinehint nounwind sspstrong willreturn memory(read) uwtable
define internal zeroext i1 @RB_SYMBOL_P(i64 noundef %0) #6 {
  %2 = alloca i64, align 8
  store i64 %0, ptr %2, align 8, !tbaa !11
  %3 = load i64, ptr %2, align 8, !tbaa !11
  %4 = call zeroext i1 @RB_STATIC_SYM_P(i64 noundef %3) #26
  br i1 %4, label %8, label %5

5:                                                ; preds = %1
  %6 = load i64, ptr %2, align 8, !tbaa !11
  %7 = call zeroext i1 @RB_DYNAMIC_SYM_P(i64 noundef %6) #25
  br label %8

8:                                                ; preds = %5, %1
  %9 = phi i1 [ true, %1 ], [ %7, %5 ]
  ret i1 %9
}

; Function Attrs: nounwind sspstrong uwtable
define internal i64 @sock_accept_nonblock(i64 noundef %0, i64 noundef %1) #0 {
  %3 = alloca i64, align 8
  %4 = alloca i64, align 8
  %5 = alloca i64, align 8
  %6 = alloca ptr, align 8
  %7 = alloca i64, align 8
  %8 = alloca %union.union_sockaddr, align 8
  %9 = alloca ptr, align 8
  %10 = alloca i32, align 4
  %11 = alloca i32, align 4
  store i64 %0, ptr %4, align 8, !tbaa !11
  store i64 %1, ptr %5, align 8, !tbaa !11
  call void @llvm.lifetime.start.p0(i64 8, ptr %6) #24
  call void @llvm.lifetime.start.p0(i64 8, ptr %7) #24
  call void @llvm.lifetime.start.p0(i64 2048, ptr %8) #24
  call void @llvm.lifetime.start.p0(i64 8, ptr %9) #24
  store ptr %8, ptr %9, align 8, !tbaa !15
  call void @llvm.lifetime.start.p0(i64 4, ptr %10) #24
  store i32 2048, ptr %10, align 4, !tbaa !13
  %12 = load i64, ptr %4, align 8, !tbaa !11
  %13 = call i64 @rb_io_taint_check(i64 noundef %12)
  %14 = inttoptr i64 %13 to ptr
  %15 = getelementptr inbounds nuw %struct.RFile, ptr %14, i32 0, i32 1
  %16 = load ptr, ptr %15, align 8, !tbaa !35
  store ptr %16, ptr %6, align 8, !tbaa !38
  call void @rb_io_check_closed(ptr noundef %16)
  %17 = load i64, ptr @rb_cSocket, align 8, !tbaa !11
  %18 = load i64, ptr %5, align 8, !tbaa !11
  %19 = load ptr, ptr %6, align 8, !tbaa !38
  %20 = load ptr, ptr %9, align 8, !tbaa !15
  %21 = call i64 @rsock_s_accept_nonblock(i64 noundef %17, i64 noundef %18, ptr noundef %19, ptr noundef %20, ptr noundef %10)
  store i64 %21, ptr %7, align 8, !tbaa !11
  %22 = load i64, ptr %7, align 8, !tbaa !11
  %23 = call zeroext i1 @RB_SYMBOL_P(i64 noundef %22) #25
  br i1 %23, label %24, label %26

24:                                               ; preds = %2
  %25 = load i64, ptr %7, align 8, !tbaa !11
  store i64 %25, ptr %3, align 8
  store i32 1, ptr %11, align 4
  br label %32

26:                                               ; preds = %2
  %27 = load i64, ptr %7, align 8, !tbaa !11
  %28 = load i64, ptr %7, align 8, !tbaa !11
  %29 = load i32, ptr %10, align 4, !tbaa !13
  %30 = call i64 @rsock_io_socket_addrinfo(i64 noundef %28, ptr noundef %8, i32 noundef %29)
  %31 = call i64 @rb_assoc_new(i64 noundef %27, i64 noundef %30)
  store i64 %31, ptr %3, align 8
  store i32 1, ptr %11, align 4
  br label %32

32:                                               ; preds = %26, %24
  call void @llvm.lifetime.end.p0(i64 4, ptr %10) #24
  call void @llvm.lifetime.end.p0(i64 8, ptr %9) #24
  call void @llvm.lifetime.end.p0(i64 2048, ptr %8) #24
  call void @llvm.lifetime.end.p0(i64 8, ptr %7) #24
  call void @llvm.lifetime.end.p0(i64 8, ptr %6) #24
  %33 = load i64, ptr %3, align 8
  ret i64 %33
}