; Function Attrs: nounwind sspstrong uwtable
define internal i64 @sock_accept_nonblock(i64 noundef %0, i64 noundef %1) #0 {
  %3 = alloca %union.union_sockaddr, align 8
  %4 = alloca i32, align 4
  call void @llvm.lifetime.start.p0(i64 2048, ptr nonnull %3) #16
  call void @llvm.lifetime.start.p0(i64 4, ptr nonnull %4) #16
  store i32 2048, ptr %4, align 4, !tbaa !6
  %5 = tail call i64 @rb_io_taint_check(i64 noundef %0) #16
  %6 = inttoptr i64 %5 to ptr
  %7 = getelementptr inbounds nuw i8, ptr %6, i64 16
  %8 = load ptr, ptr %7, align 8, !tbaa !24
  tail call void @rb_io_check_closed(ptr noundef %8) #16
  %9 = load i64, ptr @rb_cSocket, align 8, !tbaa !10
  %10 = call i64 @rsock_s_accept_nonblock(i64 noundef %9, i64 noundef %1, ptr noundef %8, ptr noundef nonnull %3, ptr noundef nonnull %4) #16
  %11 = and i64 %10, 255
  %12 = icmp eq i64 %11, 12
  br i1 %12, label %RB_SYMBOL_P.exit.thread, label %13

13:                                               ; preds = %2
  %14 = icmp eq i64 %10, 0
  %15 = and i64 %10, 7
  %16 = icmp ne i64 %15, 0
  %17 = or i1 %14, %16
  br i1 %17, label %RB_SYMBOL_P.exit.thread8, label %RB_SYMBOL_P.exit

RB_SYMBOL_P.exit:                                 ; preds = %13
  %18 = inttoptr i64 %10 to ptr
  %19 = load i64, ptr %18, align 8, !tbaa !12
  %20 = and i64 %19, 31
  %21 = icmp eq i64 %20, 20
  br i1 %21, label %RB_SYMBOL_P.exit.thread, label %RB_SYMBOL_P.exit.thread8

RB_SYMBOL_P.exit.thread8:                         ; preds = %13, %RB_SYMBOL_P.exit
  %22 = load i32, ptr %4, align 4, !tbaa !6
  %23 = call i64 @rsock_io_socket_addrinfo(i64 noundef %10, ptr noundef nonnull %3, i32 noundef %22) #16
  %24 = call i64 @rb_assoc_new(i64 noundef %10, i64 noundef %23) #16
  br label %RB_SYMBOL_P.exit.thread

RB_SYMBOL_P.exit.thread:                          ; preds = %2, %RB_SYMBOL_P.exit, %RB_SYMBOL_P.exit.thread8
  %.0 = phi i64 [ %24, %RB_SYMBOL_P.exit.thread8 ], [ %10, %RB_SYMBOL_P.exit ], [ %10, %2 ]
  call void @llvm.lifetime.end.p0(i64 4, ptr nonnull %4) #16
  call void @llvm.lifetime.end.p0(i64 2048, ptr nonnull %3) #16
  ret i64 %.0
}